; Function Attrs: nofree norecurse nosync nounwind memory(read, inaccessiblemem: none) uwtable
define dso_local noundef zeroext i1 @has_unique_index(ptr noundef readonly captures(none) %0, i16 noundef signext %1) local_unnamed_addr #6 {
  %3 = getelementptr inbounds nuw i8, ptr %0, i64 176
  %4 = load ptr, ptr %3, align 8
  %.not = icmp eq ptr %4, null
  br i1 %.not, label %.critedge21, label %.lr.ph

.lr.ph:                                           ; preds = %2
  %5 = getelementptr inbounds nuw i8, ptr %4, i64 4
  %6 = load i32, ptr %5, align 4
  %7 = sext i16 %1 to i32
  %8 = icmp sgt i32 %6, 0
  br i1 %8, label %.lr.ph36, label %.critedge21

.lr.ph36:                                         ; preds = %.lr.ph
  %9 = getelementptr inbounds nuw i8, ptr %4, i64 16
  %10 = load ptr, ptr %9, align 8
  %wide.trip.count = zext nneg i32 %6 to i64
  br label %11

11:                                               ; preds = %.lr.ph36, %.critedge
  %indvars.iv = phi i64 [ 0, %.lr.ph36 ], [ %indvars.iv.next, %.critedge ]
  %12 = getelementptr inbounds nuw %union.ListCell, ptr %10, i64 %indvars.iv
  %13 = load ptr, ptr %12, align 8
  %14 = getelementptr inbounds nuw i8, ptr %13, i64 169
  %15 = load i8, ptr %14, align 1, !range !4, !noundef !5
  %16 = trunc nuw i8 %15 to i1
  br i1 %16, label %17, label %.critedge

17:                                               ; preds = %11
  %18 = getelementptr inbounds nuw i8, ptr %13, i64 48
  %19 = load i32, ptr %18, align 8
  %20 = icmp eq i32 %19, 1
  br i1 %20, label %21, label %.critedge

21:                                               ; preds = %17
  %22 = getelementptr inbounds nuw i8, ptr %13, i64 56
  %23 = load ptr, ptr %22, align 8
  %24 = load i32, ptr %23, align 4
  %25 = icmp eq i32 %24, %7
  br i1 %25, label %26, label %.critedge

26:                                               ; preds = %21
  %27 = getelementptr inbounds nuw i8, ptr %13, i64 144
  %28 = load ptr, ptr %27, align 8
  %29 = icmp eq ptr %28, null
  br i1 %29, label %.critedge21, label %30

30:                                               ; preds = %26
  %31 = getelementptr inbounds nuw i8, ptr %13, i64 168
  %32 = load i8, ptr %31, align 8, !range !4, !noundef !5
  %33 = trunc nuw i8 %32 to i1
  br i1 %33, label %.critedge21, label %.critedge

.critedge:                                        ; preds = %30, %21, %17, %11
  %indvars.iv.next = add nuw nsw i64 %indvars.iv, 1
  %exitcond.not = icmp eq i64 %indvars.iv.next, %wide.trip.count
  br i1 %exitcond.not, label %.critedge21, label %11

.critedge21:                                      ; preds = %30, %26, %.critedge, %.lr.ph, %2
  %.3 = phi i1 [ false, %2 ], [ false, %.lr.ph ], [ false, %.critedge ], [ true, %26 ], [ true, %30 ]
  ret i1 %.3
}